#include <math.h>
#include <stdio.h>
#include <stdlib.h>
#include <string.h>
#include <iostream>
using namespace std;

/*??????
???   1200012876
2012?10?16?22:36:30   */
int main(){
int  n,a[1000],b[1000],N[1000];    //?????? 
cin>>n;     //????n 
for(int j=1;j<=n;j++)    
{
cin>>b[j];   //???????
if (b[j]<3)cout<<"1"<<endl; //????????3????1??? 
else                        //???3??????? 
    {for(int i=3;i<=b[j];i++)
    {
        a[1]=1,a[2]=1;
        a[i]=a[i-1]+a[i-2];
        }
        N[j]=a[b[j]];      //?a[????]?N[j] 
        cout<<N[j]<<endl;  //?? N[j] 
        }}
        return 0;
}
